; Function Attrs: mustprogress uwtable
define dso_local void @_ZNK18btGImpactMeshShape21calculateLocalInertiaEfR9btVector3(ptr noundef nonnull readonly align 8 captures(none) dereferenceable(224) %0, float noundef %1, ptr noundef nonnull align 4 captures(none) dereferenceable(16) initializes((0, 16)) %2) unnamed_addr #0 align 2 {
  %4 = alloca %class.btVector3, align 4
  %5 = getelementptr inbounds nuw i8, ptr %2, i64 4
  %6 = getelementptr inbounds nuw i8, ptr %2, i64 8
  %7 = getelementptr inbounds nuw i8, ptr %0, i64 196
  tail call void @llvm.memset.p0.i64(ptr noundef nonnull align 4 dereferenceable(16) %2, i8 0, i64 16, i1 false)
  %8 = load i32, ptr %7, align 4, !tbaa !75
  %9 = sitofp i32 %8 to float
  %10 = fdiv float %1, %9
  %.not9 = icmp eq i32 %8, 0
  br i1 %.not9, label %._crit_edge, label %.lr.ph

.lr.ph:                                           ; preds = %3
  %11 = getelementptr inbounds nuw i8, ptr %0, i64 208
  %12 = getelementptr inbounds nuw i8, ptr %4, i64 4
  %13 = getelementptr inbounds nuw i8, ptr %4, i64 8
  %14 = sext i32 %8 to i64
  br label %15

15:                                               ; preds = %.lr.ph, %15
  %indvars.iv = phi i64 [ %14, %.lr.ph ], [ %indvars.iv.next, %15 ]
  %indvars.iv.next = add nsw i64 %indvars.iv, -1
  call void @llvm.lifetime.start.p0(i64 16, ptr nonnull %4) #20
  %16 = load ptr, ptr %11, align 8, !tbaa !79
  %17 = getelementptr inbounds ptr, ptr %16, i64 %indvars.iv.next
  %18 = load ptr, ptr %17, align 8, !tbaa !80
  %19 = load ptr, ptr %18, align 8, !tbaa !30
  %20 = getelementptr inbounds nuw i8, ptr %19, i64 64
  %21 = load ptr, ptr %20, align 8
  call void %21(ptr noundef nonnull align 8 dereferenceable(280) %18, float noundef %10, ptr noundef nonnull align 4 dereferenceable(16) %4)
  %22 = load float, ptr %4, align 4, !tbaa !23
  %23 = load float, ptr %2, align 4, !tbaa !23
  %24 = fadd float %22, %23
  store float %24, ptr %2, align 4, !tbaa !23
  %25 = load float, ptr %12, align 4, !tbaa !23
  %26 = load float, ptr %5, align 4, !tbaa !23
  %27 = fadd float %25, %26
  store float %27, ptr %5, align 4, !tbaa !23
  %28 = load float, ptr %13, align 4, !tbaa !23
  %29 = load float, ptr %6, align 4, !tbaa !23
  %30 = fadd float %28, %29
  store float %30, ptr %6, align 4, !tbaa !23
  call void @llvm.lifetime.end.p0(i64 16, ptr nonnull %4) #20
  %.not = icmp eq i64 %indvars.iv.next, 0
  br i1 %.not, label %._crit_edge, label %15, !llvm.loop !82

._crit_edge:                                      ; preds = %15, %3
  ret void
}